(i__main__
score
p0
(dp1
S'score'
p2
I1708
sS'name'
p3
S'sneha'
p4
sS'level'
p5
I1
sb.(i__main__
score
p0
(dp1
S'score'
p2
I1684
sS'name'
p3
S'ye'
p4
sS'level'
p5
I1
sb.(i__main__
score
p0
(dp1
S'score'
p2
I1125
sS'name'
p3
S'l'
p4
sS'level'
p5
I1
sb.(i__main__
score
p0
(dp1
S'score'
p2
I1098
sS'name'
p3
S'yayyyy'
p4
sS'level'
p5
I2
sb.(i__main__
score
p0
(dp1
S'score'
p2
I1070
sS'name'
p3
S'sne'
p4
sS'level'
p5
I2
sb.(i__main__
score
p0
(dp1
S'score'
p2
I951
sS'name'
p3
S'sneha'
p4
sS'level'
p5
I2
sb.(i__main__
score
p0
(dp1
S'score'
p2
I900
sS'name'
p3
S''
p4
sS'level'
p5
I3
sb.(i__main__
score
p0
(dp1
S'score'
p2
I760
sS'name'
p3
S'sneha'
p4
sS'level'
p5
I3
sb.(i__main__
score
p0
(dp1
S'score'
p2
I683
sS'name'
p3
S'hhgh'
p4
sS'level'
p5
I3
sb.